target datalayout = "e-m:e-p270:32:32-p271:32:32-p272:64:64-i64:64-i128:128-f80:128-n8:16:32:64-S128"
target triple = "x86_64-pc-linux-gnu"

%"struct.std::atomic.2" = type { %"struct.std::__atomic_base.3" }
%"struct.std::__atomic_base.3" = type { i8 }
%class.anon = type { i8 }

; Function Attrs: noreturn nounwind uwtable
define linkonce_odr hidden void @__clang_call_terminate(ptr noundef %0) #3 comdat {
  %2 = call ptr @__cxa_begin_catch(ptr %0) #16
  call void @_ZSt9terminatev() #19
  unreachable
}

; Function Attrs: mustprogress nounwind uwtable
define internal noundef i32 @_ZL15__gthread_yieldv() #0 {
  %1 = call i32 @sched_yield() #16
  ret i32 %1
}

; Function Attrs: mustprogress nounwind uwtable
define linkonce_odr dso_local noundef i32 @_ZStanSt12memory_orderSt23__memory_order_modifier(i32 noundef %0, i32 noundef %1) #0 comdat {
  %3 = alloca i32, align 4
  %4 = alloca i32, align 4
  store i32 %0, ptr %3, align 4
  store i32 %1, ptr %4, align 4
  %5 = load i32, ptr %3, align 4
  %6 = load i32, ptr %4, align 4
  %7 = and i32 %5, %6
  ret i32 %7
}

; Function Attrs: mustprogress nounwind uwtable
define linkonce_odr dso_local void @_ZNSt13__atomic_baseIbEC2Eb(ptr noundef nonnull align 1 dereferenceable(1) %0, i1 noundef zeroext %1) unnamed_addr #0 comdat align 2 {
  %3 = alloca ptr, align 8
  %4 = alloca i8, align 1
  store ptr %0, ptr %3, align 8
  %5 = zext i1 %1 to i8
  store i8 %5, ptr %4, align 1
  %6 = load ptr, ptr %3, align 8
  %7 = getelementptr inbounds %"struct.std::__atomic_base.3", ptr %6, i32 0, i32 0
  %8 = load i8, ptr %4, align 1
  %9 = trunc i8 %8 to i1
  %10 = zext i1 %9 to i8
  store i8 %10, ptr %7, align 1
  ret void
}

; Function Attrs: mustprogress nounwind uwtable
define linkonce_odr dso_local void @_ZNSt11this_thread5yieldEv() #0 comdat personality ptr @__gxx_personality_v0 {
  %1 = invoke noundef i32 @_ZL15__gthread_yieldv()
          to label %2 unwind label %3

2:                                                ; preds = %0
  ret void

3:                                                ; preds = %0
  %4 = landingpad { ptr, i32 }
          catch ptr null
  %5 = extractvalue { ptr, i32 } %4, 0
  call void @__clang_call_terminate(ptr %5) #19
  unreachable
}

; Function Attrs: mustprogress nounwind uwtable
define linkonce_odr dso_local noundef zeroext i1 @_ZNKSt6atomicIbE4loadESt12memory_order(ptr noundef nonnull align 1 dereferenceable(1) %0, i32 noundef %1) #0 comdat align 2 {
  %3 = alloca ptr, align 8
  %4 = alloca i32, align 4
  %5 = alloca i32, align 4
  %6 = alloca i8, align 1
  %7 = alloca ptr, align 8
  %8 = alloca i32, align 4
  store ptr %0, ptr %7, align 8
  store i32 %1, ptr %8, align 4
  %9 = load ptr, ptr %7, align 8
  %10 = getelementptr inbounds %"struct.std::atomic.2", ptr %9, i32 0, i32 0
  %11 = load i32, ptr %8, align 4
  store ptr %10, ptr %3, align 8
  store i32 %11, ptr %4, align 4
  %12 = load ptr, ptr %3, align 8
  %13 = load i32, ptr %4, align 4
  %14 = call noundef i32 @_ZStanSt12memory_orderSt23__memory_order_modifier(i32 noundef %13, i32 noundef 65535)
  store i32 %14, ptr %5, align 4
  %15 = load i32, ptr %4, align 4
  switch i32 %15, label %16 [
    i32 1, label %18
    i32 2, label %18
    i32 5, label %20
  ]

16:                                               ; preds = %2
  %17 = load atomic i8, ptr %12 monotonic, align 1
  store i8 %17, ptr %6, align 1
  br label %22

18:                                               ; preds = %2, %2
  %19 = load atomic i8, ptr %12 acquire, align 1
  store i8 %19, ptr %6, align 1
  br label %22

20:                                               ; preds = %2
  %21 = load atomic i8, ptr %12 seq_cst, align 1
  store i8 %21, ptr %6, align 1
  br label %22

22:                                               ; preds = %20, %18, %16
  %23 = load i8, ptr %6, align 1
  %24 = trunc i8 %23 to i1
  ret i1 %24
}

; Function Attrs: mustprogress nounwind uwtable
define internal noundef ptr @"_ZZN14VlWorkerThread4waitEvENK3$_0cvPFvPvbEEv"(ptr noundef nonnull align 1 dereferenceable(1) %0) #0 align 2 {
  %2 = alloca ptr, align 8
  store ptr %0, ptr %2, align 8
  ret ptr @"_ZZN14VlWorkerThread4waitEvEN3$_08__invokeEPvb"
}

; Function Attrs: mustprogress nounwind uwtable
define linkonce_odr dso_local void @_ZNSt6atomicIbEC2Eb(ptr noundef nonnull align 1 dereferenceable(1) %0, i1 noundef zeroext %1) unnamed_addr #0 comdat align 2 {
  %3 = alloca ptr, align 8
  %4 = alloca i8, align 1
  store ptr %0, ptr %3, align 8
  %5 = zext i1 %1 to i8
  store i8 %5, ptr %4, align 1
  %6 = load ptr, ptr %3, align 8
  %7 = getelementptr inbounds %"struct.std::atomic.2", ptr %6, i32 0, i32 0
  %8 = load i8, ptr %4, align 1
  %9 = trunc i8 %8 to i1
  call void @_ZNSt13__atomic_baseIbEC2Eb(ptr noundef nonnull align 1 dereferenceable(1) %7, i1 noundef zeroext %9) #16
  ret void
}

; Function Attrs: mustprogress uwtable
define dso_local void @_ZN14VlWorkerThread4waitEv(ptr noundef nonnull align 8 dereferenceable(152) %0) #1 align 2 {
  %2 = alloca ptr, align 8
  %3 = alloca %"struct.std::atomic.2", align 1
  %4 = alloca %class.anon, align 1
  %5 = alloca i32, align 4
  store ptr %0, ptr %2, align 8
  %6 = load ptr, ptr %2, align 8
  call void @_ZNSt6atomicIbEC2Eb(ptr noundef nonnull align 1 dereferenceable(1) %3, i1 noundef zeroext false) #16
  %7 = call noundef ptr @"_ZZN14VlWorkerThread4waitEvENK3$_0cvPFvPvbEEv"(ptr noundef nonnull align 1 dereferenceable(1) %4) #16
  call void @_ZN14VlWorkerThread7addTaskEPFvPvbES0_b(ptr noundef nonnull align 8 dereferenceable(152) %6, ptr noundef %7, ptr noundef %3, i1 noundef zeroext false)
  store i32 0, ptr %5, align 4
  br label %8

8:                                                ; preds = %15, %1
  %9 = load i32, ptr %5, align 4
  %10 = icmp ult i32 %9, 50000
  br i1 %10, label %11, label %18

11:                                               ; preds = %8
  %12 = call noundef zeroext i1 @_ZNKSt6atomicIbE4loadESt12memory_order(ptr noundef nonnull align 1 dereferenceable(1) %3, i32 noundef 5) #16
  br i1 %12, label %13, label %14

13:                                               ; preds = %11
  br label %23

14:                                               ; preds = %11
  call void asm sideeffect "rep; nop", "~{memory},~{dirflag},~{fpsr},~{flags}"() #16, !srcloc !5
  br label %15

15:                                               ; preds = %14
  %16 = load i32, ptr %5, align 4
  %17 = add i32 %16, 1
  store i32 %17, ptr %5, align 4
  br label %8, !llvm.loop !6

18:                                               ; preds = %8
  br label %19

19:                                               ; preds = %22, %18
  %20 = call noundef zeroext i1 @_ZNKSt6atomicIbE4loadESt12memory_order(ptr noundef nonnull align 1 dereferenceable(1) %3, i32 noundef 5) #16
  %21 = xor i1 %20, true
  br i1 %21, label %22, label %23

22:                                               ; preds = %19
  call void @_ZNSt11this_thread5yieldEv() #16
  br label %19, !llvm.loop !8

23:                                               ; preds = %19, %13
  ret void
}