; Function Attrs: mustprogress uwtable
define dso_local void @_ZN14VlWorkerThread4waitEv(ptr noundef nonnull align 8 dereferenceable(152) %0) local_unnamed_addr #1 align 2 personality ptr @__gxx_personality_v0 {
  %2 = alloca %"struct.std::atomic.2", align 1
  store i8 0, ptr %2, align 1
  call void @_ZN14VlWorkerThread7addTaskEPFvPvbES0_b(ptr noundef nonnull align 8 dereferenceable(152) %0, ptr noundef nonnull @"_ZZN14VlWorkerThread4waitEvEN3$_08__invokeEPvb", ptr noundef nonnull %2, i1 noundef zeroext false)
  br label %5

.preheader:                                       ; preds = %8
  %3 = load atomic i8, ptr %2 seq_cst, align 1
  %4 = trunc i8 %3 to i1
  br i1 %4, label %.loopexit, label %.lr.ph

5:                                                ; preds = %1, %8
  %.03 = phi i32 [ 0, %1 ], [ %9, %8 ]
  %6 = load atomic i8, ptr %2 seq_cst, align 1
  %7 = trunc i8 %6 to i1
  br i1 %7, label %.loopexit, label %8

8:                                                ; preds = %5
  call void asm sideeffect "rep; nop", "~{memory},~{dirflag},~{fpsr},~{flags}"() #22, !srcloc !12
  %9 = add nuw nsw i32 %.03, 1
  %exitcond.not = icmp eq i32 %9, 50000
  br i1 %exitcond.not, label %.preheader, label %5, !llvm.loop !13

.lr.ph:                                           ; preds = %.preheader, %.lr.ph
  %10 = call noundef i32 @sched_yield() #22
  %11 = load atomic i8, ptr %2 seq_cst, align 1
  %12 = trunc i8 %11 to i1
  br i1 %12, label %.loopexit, label %.lr.ph, !llvm.loop !14

.loopexit:                                        ; preds = %5, %.lr.ph, %.preheader
  ret void
}